target datalayout = "e-m:e-p270:32:32-p271:32:32-p272:64:64-i64:64-i128:128-f80:128-n8:16:32:64-S128"
target triple = "x86_64-unknown-linux-gnu"

%"class.std::basic_string_view" = type { i64, ptr }

; Function Attrs: mustprogress nounwind uwtable
define linkonce_odr hidden noundef ptr @_ZNKSt17basic_string_viewIcSt11char_traitsIcEE4dataEv(ptr noundef nonnull align 8 dereferenceable(16) %this) #5 comdat align 2 {
entry:
  %this.addr = alloca ptr, align 8
  store ptr %this, ptr %this.addr, align 8
  %this1 = load ptr, ptr %this.addr, align 8
  %_M_str = getelementptr inbounds %"class.std::basic_string_view", ptr %this1, i32 0, i32 1
  %0 = load ptr, ptr %_M_str, align 8
  ret ptr %0
}

; Function Attrs: mustprogress nounwind uwtable
define linkonce_odr hidden noundef i64 @_ZNKSt17basic_string_viewIcSt11char_traitsIcEE4sizeEv(ptr noundef nonnull align 8 dereferenceable(16) %this) #5 comdat align 2 {
entry:
  %this.addr = alloca ptr, align 8
  store ptr %this, ptr %this.addr, align 8
  %this1 = load ptr, ptr %this.addr, align 8
  %_M_len = getelementptr inbounds %"class.std::basic_string_view", ptr %this1, i32 0, i32 0
  %0 = load i64, ptr %_M_len, align 8
  ret i64 %0
}

; Function Attrs: mustprogress uwtable
define linkonce_odr hidden void @_ZN6google8protobuf8internal11WriteVarintEmPNSt7__cxx1112basic_stringIcSt11char_traitsIcESaIcEEE(i64 noundef %val, ptr noundef %s) #4 comdat {
entry:
  %val.addr = alloca i64, align 8
  %s.addr = alloca ptr, align 8
  %c = alloca i8, align 1
  store i64 %val, ptr %val.addr, align 8
  store ptr %s, ptr %s.addr, align 8
  br label %while.cond

while.cond:                                       ; preds = %while.body, %entry
  %0 = load i64, ptr %val.addr, align 8
  %cmp = icmp uge i64 %0, 128
  br i1 %cmp, label %while.body, label %while.end

while.body:                                       ; preds = %while.cond
  %1 = load i64, ptr %val.addr, align 8
  %or = or i64 %1, 128
  %conv = trunc i64 %or to i8
  store i8 %conv, ptr %c, align 1
  %2 = load ptr, ptr %s.addr, align 8
  %3 = load i8, ptr %c, align 1
  call void @_ZNSt7__cxx1112basic_stringIcSt11char_traitsIcESaIcEE9push_backEc(ptr noundef nonnull align 8 dereferenceable(32) %2, i8 noundef signext %3)
  %4 = load i64, ptr %val.addr, align 8
  %shr = lshr i64 %4, 7
  store i64 %shr, ptr %val.addr, align 8
  br label %while.cond, !llvm.loop !19

while.end:                                        ; preds = %while.cond
  %5 = load ptr, ptr %s.addr, align 8
  %6 = load i64, ptr %val.addr, align 8
  %conv1 = trunc i64 %6 to i8
  call void @_ZNSt7__cxx1112basic_stringIcSt11char_traitsIcESaIcEE9push_backEc(ptr noundef nonnull align 8 dereferenceable(32) %5, i8 noundef signext %conv1)
  ret void
}

; Function Attrs: mustprogress uwtable
define void @_ZN6google8protobuf8internal20WriteLengthDelimitedEjSt17basic_string_viewIcSt11char_traitsIcEEPNSt7__cxx1112basic_stringIcS4_SaIcEEE(i32 noundef %num, i64 %val.coerce0, ptr %val.coerce1, ptr noundef %s) #4 {
entry:
  %val = alloca %"class.std::basic_string_view", align 8
  %num.addr = alloca i32, align 4
  %s.addr = alloca ptr, align 8
  %0 = getelementptr inbounds { i64, ptr }, ptr %val, i32 0, i32 0
  store i64 %val.coerce0, ptr %0, align 8
  %1 = getelementptr inbounds { i64, ptr }, ptr %val, i32 0, i32 1
  store ptr %val.coerce1, ptr %1, align 8
  store i32 %num, ptr %num.addr, align 4
  store ptr %s, ptr %s.addr, align 8
  %2 = load i32, ptr %num.addr, align 4
  %shl = shl i32 %2, 3
  %add = add i32 %shl, 2
  %conv = zext i32 %add to i64
  %3 = load ptr, ptr %s.addr, align 8
  call void @_ZN6google8protobuf8internal11WriteVarintEmPNSt7__cxx1112basic_stringIcSt11char_traitsIcESaIcEEE(i64 noundef %conv, ptr noundef %3)
  %call = call noundef i64 @_ZNKSt17basic_string_viewIcSt11char_traitsIcEE4sizeEv(ptr noundef nonnull align 8 dereferenceable(16) %val) #3
  %4 = load ptr, ptr %s.addr, align 8
  call void @_ZN6google8protobuf8internal11WriteVarintEmPNSt7__cxx1112basic_stringIcSt11char_traitsIcESaIcEEE(i64 noundef %call, ptr noundef %4)
  %5 = load ptr, ptr %s.addr, align 8
  %call1 = call noundef ptr @_ZNKSt17basic_string_viewIcSt11char_traitsIcEE4dataEv(ptr noundef nonnull align 8 dereferenceable(16) %val) #3
  %call2 = call noundef i64 @_ZNKSt17basic_string_viewIcSt11char_traitsIcEE4sizeEv(ptr noundef nonnull align 8 dereferenceable(16) %val) #3
  %call3 = call noundef nonnull align 8 dereferenceable(32) ptr @_ZNSt7__cxx1112basic_stringIcSt11char_traitsIcESaIcEE6appendEPKcm(ptr noundef nonnull align 8 dereferenceable(32) %5, ptr noundef %call1, i64 noundef %call2)
  ret void
}