; Function Attrs: mustprogress uwtable
define void @_ZN6google8protobuf8internal20WriteLengthDelimitedEjSt17basic_string_viewIcSt11char_traitsIcEEPNSt7__cxx1112basic_stringIcS4_SaIcEEE(i32 noundef %num, i64 %val.coerce0, ptr %val.coerce1, ptr noundef %s) local_unnamed_addr #4 {
entry:
  %shl = shl i32 %num, 3
  %add = or disjoint i32 %shl, 2
  %conv = zext i32 %add to i64
  %cmp5.i = icmp ugt i32 %shl, 127
  br i1 %cmp5.i, label %while.body.i, label %_ZN6google8protobuf8internal11WriteVarintEmPNSt7__cxx1112basic_stringIcSt11char_traitsIcESaIcEEE.exit

while.body.i:                                     ; preds = %entry, %while.body.i
  %val.addr.06.i = phi i64 [ %shr.i, %while.body.i ], [ %conv, %entry ]
  %0 = trunc i64 %val.addr.06.i to i8
  %conv.i = or i8 %0, -128
  tail call void @_ZNSt7__cxx1112basic_stringIcSt11char_traitsIcESaIcEE9push_backEc(ptr noundef nonnull align 8 dereferenceable(32) %s, i8 noundef signext %conv.i)
  %shr.i = lshr i64 %val.addr.06.i, 7
  %cmp.i = icmp samesign ugt i64 %val.addr.06.i, 16383
  br i1 %cmp.i, label %while.body.i, label %_ZN6google8protobuf8internal11WriteVarintEmPNSt7__cxx1112basic_stringIcSt11char_traitsIcESaIcEEE.exit, !llvm.loop !21

_ZN6google8protobuf8internal11WriteVarintEmPNSt7__cxx1112basic_stringIcSt11char_traitsIcESaIcEEE.exit: ; preds = %while.body.i, %entry
  %val.addr.0.lcssa.i = phi i64 [ %conv, %entry ], [ %shr.i, %while.body.i ]
  %conv1.i = trunc nuw nsw i64 %val.addr.0.lcssa.i to i8
  tail call void @_ZNSt7__cxx1112basic_stringIcSt11char_traitsIcESaIcEE9push_backEc(ptr noundef nonnull align 8 dereferenceable(32) %s, i8 noundef signext %conv1.i)
  %cmp5.i3 = icmp ugt i64 %val.coerce0, 127
  br i1 %cmp5.i3, label %while.body.i6, label %_ZN6google8protobuf8internal11WriteVarintEmPNSt7__cxx1112basic_stringIcSt11char_traitsIcESaIcEEE.exit11

while.body.i6:                                    ; preds = %_ZN6google8protobuf8internal11WriteVarintEmPNSt7__cxx1112basic_stringIcSt11char_traitsIcESaIcEEE.exit, %while.body.i6
  %val.addr.06.i7 = phi i64 [ %shr.i9, %while.body.i6 ], [ %val.coerce0, %_ZN6google8protobuf8internal11WriteVarintEmPNSt7__cxx1112basic_stringIcSt11char_traitsIcESaIcEEE.exit ]
  %1 = trunc i64 %val.addr.06.i7 to i8
  %conv.i8 = or i8 %1, -128
  tail call void @_ZNSt7__cxx1112basic_stringIcSt11char_traitsIcESaIcEE9push_backEc(ptr noundef nonnull align 8 dereferenceable(32) %s, i8 noundef signext %conv.i8)
  %shr.i9 = lshr i64 %val.addr.06.i7, 7
  %cmp.i10 = icmp ugt i64 %val.addr.06.i7, 16383
  br i1 %cmp.i10, label %while.body.i6, label %_ZN6google8protobuf8internal11WriteVarintEmPNSt7__cxx1112basic_stringIcSt11char_traitsIcESaIcEEE.exit11, !llvm.loop !21

_ZN6google8protobuf8internal11WriteVarintEmPNSt7__cxx1112basic_stringIcSt11char_traitsIcESaIcEEE.exit11: ; preds = %while.body.i6, %_ZN6google8protobuf8internal11WriteVarintEmPNSt7__cxx1112basic_stringIcSt11char_traitsIcESaIcEEE.exit
  %val.addr.0.lcssa.i4 = phi i64 [ %val.coerce0, %_ZN6google8protobuf8internal11WriteVarintEmPNSt7__cxx1112basic_stringIcSt11char_traitsIcESaIcEEE.exit ], [ %shr.i9, %while.body.i6 ]
  %conv1.i5 = trunc nuw nsw i64 %val.addr.0.lcssa.i4 to i8
  tail call void @_ZNSt7__cxx1112basic_stringIcSt11char_traitsIcESaIcEE9push_backEc(ptr noundef nonnull align 8 dereferenceable(32) %s, i8 noundef signext %conv1.i5)
  %call3 = tail call noundef nonnull align 8 dereferenceable(32) ptr @_ZNSt7__cxx1112basic_stringIcSt11char_traitsIcESaIcEE6appendEPKcm(ptr noundef nonnull align 8 dereferenceable(32) %s, ptr noundef %val.coerce1, i64 noundef %val.coerce0)
  ret void
}